target datalayout = "e-m:e-p270:32:32-p271:32:32-p272:64:64-i64:64-i128:128-f80:128-n8:16:32:64-S128"
target triple = "x86_64-pc-linux-gnu"

%struct.Gia_Man_t_ = type { ptr, ptr, i32, i32, i32, i32, ptr, ptr, i32, i32, i32, ptr, ptr, %struct.Vec_Int_t_, %struct.Vec_Int_t_, i32, i32, i32, %struct.Vec_Int_t_, ptr, ptr, ptr, i32, i32, i32, i32, ptr, ptr, ptr, ptr, ptr, i32, i32, ptr, i32, ptr, ptr, ptr, ptr, ptr, ptr, ptr, ptr, ptr, ptr, ptr, ptr, ptr, ptr, ptr, ptr, ptr, ptr, %struct.Vec_Int_t_, %struct.Vec_Int_t_, ptr, ptr, ptr, ptr, ptr, ptr, ptr, ptr, ptr, ptr, ptr, ptr, ptr, ptr, ptr, ptr, ptr, ptr, ptr, ptr, ptr, i32, float, float, ptr, ptr, i32, ptr, ptr, ptr, ptr, ptr, ptr, ptr, ptr, ptr, ptr, ptr, ptr, ptr, ptr, ptr, i64, i64, ptr, ptr, i32, i32, i32, i32, i32, i32, i32, i32, i32, i32, i32, i32, ptr, ptr, ptr, ptr, ptr, ptr, ptr, ptr, i32, i32, i32, ptr, i32, i32, ptr, ptr, ptr, ptr, ptr, ptr, i32, i32, ptr, %struct.Vec_Int_t_, %struct.Vec_Int_t_, %struct.Vec_Int_t_, ptr, ptr, ptr, i32, i32, i32, i32, ptr, ptr, ptr, ptr, ptr }
%struct.Vec_Int_t_ = type { i32, i32, ptr }
%struct.If_LibLut_t_ = type { ptr, i32, i32, [33 x float], [33 x [33 x float]] }

@.str.1 = private unnamed_addr constant [60 x i8] c"LUT library for packing 4-LUTs should have 7 or 10 inputs.\0A\00", align 1
@.str.2 = private unnamed_addr constant [61 x i8] c"LUT library for packing 6-LUTs should have 11 or 16 inputs.\0A\00", align 1
@.str.3 = private unnamed_addr constant [30 x i8] c"The LUT size is more than 6.\0A\00", align 1
@.str.4 = private unnamed_addr constant [40 x i8] c"Performing %d-clustering with %d-LUTs:\0A\00", align 1

; Function Attrs: inlinehint nounwind uwtable
define internal i32 @Vec_IntSize(ptr noundef %0) #3 {
  %2 = alloca ptr, align 8
  store ptr %0, ptr %2, align 8, !tbaa !15
  %3 = load ptr, ptr %2, align 8, !tbaa !15
  %4 = getelementptr inbounds nuw %struct.Vec_Int_t_, ptr %3, i32 0, i32 1
  %5 = load i32, ptr %4, align 4, !tbaa !41
  ret i32 %5
}

; Function Attrs: inlinehint nounwind uwtable
define internal void @Vec_IntFreeP(ptr noundef %0) #3 {
  %2 = alloca ptr, align 8
  store ptr %0, ptr %2, align 8, !tbaa !83
  %3 = load ptr, ptr %2, align 8, !tbaa !83
  %4 = load ptr, ptr %3, align 8, !tbaa !15
  %5 = icmp eq ptr %4, null
  br i1 %5, label %6, label %7

6:                                                ; preds = %1
  br label %32

7:                                                ; preds = %1
  %8 = load ptr, ptr %2, align 8, !tbaa !83
  %9 = load ptr, ptr %8, align 8, !tbaa !15
  %10 = getelementptr inbounds nuw %struct.Vec_Int_t_, ptr %9, i32 0, i32 2
  %11 = load ptr, ptr %10, align 8, !tbaa !42
  %12 = icmp ne ptr %11, null
  br i1 %12, label %13, label %21

13:                                               ; preds = %7
  %14 = load ptr, ptr %2, align 8, !tbaa !83
  %15 = load ptr, ptr %14, align 8, !tbaa !15
  %16 = getelementptr inbounds nuw %struct.Vec_Int_t_, ptr %15, i32 0, i32 2
  %17 = load ptr, ptr %16, align 8, !tbaa !42
  call void @free(ptr noundef %17) #9
  %18 = load ptr, ptr %2, align 8, !tbaa !83
  %19 = load ptr, ptr %18, align 8, !tbaa !15
  %20 = getelementptr inbounds nuw %struct.Vec_Int_t_, ptr %19, i32 0, i32 2
  store ptr null, ptr %20, align 8, !tbaa !42
  br label %22

21:                                               ; preds = %7
  br label %22

22:                                               ; preds = %21, %13
  %23 = load ptr, ptr %2, align 8, !tbaa !83
  %24 = load ptr, ptr %23, align 8, !tbaa !15
  %25 = icmp ne ptr %24, null
  br i1 %25, label %26, label %30

26:                                               ; preds = %22
  %27 = load ptr, ptr %2, align 8, !tbaa !83
  %28 = load ptr, ptr %27, align 8, !tbaa !15
  call void @free(ptr noundef %28) #9
  %29 = load ptr, ptr %2, align 8, !tbaa !83
  store ptr null, ptr %29, align 8, !tbaa !15
  br label %31

30:                                               ; preds = %22
  br label %31

31:                                               ; preds = %30, %26
  br label %32

32:                                               ; preds = %31, %6
  ret void
}

; Function Attrs: inlinehint nounwind uwtable
define internal i32 @Gia_ManCoNum(ptr noundef %0) #3 {
  %2 = alloca ptr, align 8
  store ptr %0, ptr %2, align 8, !tbaa !3
  %3 = load ptr, ptr %2, align 8, !tbaa !3
  %4 = getelementptr inbounds nuw %struct.Gia_Man_t_, ptr %3, i32 0, i32 12
  %5 = load ptr, ptr %4, align 8, !tbaa !77
  %6 = call i32 @Vec_IntSize(ptr noundef %5)
  ret i32 %6
}

; Function Attrs: inlinehint nounwind uwtable
define internal i32 @Gia_ManCiNum(ptr noundef %0) #3 {
  %2 = alloca ptr, align 8
  store ptr %0, ptr %2, align 8, !tbaa !3
  %3 = load ptr, ptr %2, align 8, !tbaa !3
  %4 = getelementptr inbounds nuw %struct.Gia_Man_t_, ptr %3, i32 0, i32 11
  %5 = load ptr, ptr %4, align 8, !tbaa !75
  %6 = call i32 @Vec_IntSize(ptr noundef %5)
  ret i32 %6
}

; Function Attrs: nounwind uwtable
define void @Gia_ManIffTest(ptr noundef %0, ptr noundef %1, i32 noundef %2) #0 {
  %4 = alloca ptr, align 8
  %5 = alloca ptr, align 8
  %6 = alloca i32, align 4
  %7 = alloca ptr, align 8
  %8 = alloca ptr, align 8
  %9 = alloca i32, align 4
  %10 = alloca i32, align 4
  %11 = alloca i32, align 4
  store ptr %0, ptr %4, align 8, !tbaa !3
  store ptr %1, ptr %5, align 8, !tbaa !62
  store i32 %2, ptr %6, align 4, !tbaa !17
  call void @llvm.lifetime.start.p0(i64 8, ptr %7) #9
  call void @llvm.lifetime.start.p0(i64 8, ptr %8) #9
  store ptr null, ptr %8, align 8, !tbaa !63
  call void @llvm.lifetime.start.p0(i64 4, ptr %9) #9
  store i32 -1, ptr %9, align 4, !tbaa !17
  call void @llvm.lifetime.start.p0(i64 4, ptr %10) #9
  %12 = load ptr, ptr %4, align 8, !tbaa !3
  %13 = call i32 @Gia_ManLutSizeMax(ptr noundef %12)
  store i32 %13, ptr %10, align 4, !tbaa !17
  %14 = load i32, ptr %10, align 4, !tbaa !17
  %15 = icmp sle i32 %14, 4
  br i1 %15, label %16, label %32

16:                                               ; preds = %3
  store i32 4, ptr %10, align 4, !tbaa !17
  %17 = load ptr, ptr %5, align 8, !tbaa !62
  %18 = getelementptr inbounds nuw %struct.If_LibLut_t_, ptr %17, i32 0, i32 1
  %19 = load i32, ptr %18, align 8, !tbaa !79
  %20 = icmp eq i32 %19, 7
  br i1 %20, label %21, label %22

21:                                               ; preds = %16
  store i32 2, ptr %9, align 4, !tbaa !17
  br label %31

22:                                               ; preds = %16
  %23 = load ptr, ptr %5, align 8, !tbaa !62
  %24 = getelementptr inbounds nuw %struct.If_LibLut_t_, ptr %23, i32 0, i32 1
  %25 = load i32, ptr %24, align 8, !tbaa !79
  %26 = icmp eq i32 %25, 10
  br i1 %26, label %27, label %28

27:                                               ; preds = %22
  store i32 3, ptr %9, align 4, !tbaa !17
  br label %30

28:                                               ; preds = %22
  %29 = call i32 (ptr, ...) @printf(ptr noundef @.str.1)
  store i32 1, ptr %11, align 4
  br label %104

30:                                               ; preds = %27
  br label %31

31:                                               ; preds = %30, %21
  br label %54

32:                                               ; preds = %3
  %33 = load i32, ptr %10, align 4, !tbaa !17
  %34 = icmp sle i32 %33, 6
  br i1 %34, label %35, label %51

35:                                               ; preds = %32
  store i32 6, ptr %10, align 4, !tbaa !17
  %36 = load ptr, ptr %5, align 8, !tbaa !62
  %37 = getelementptr inbounds nuw %struct.If_LibLut_t_, ptr %36, i32 0, i32 1
  %38 = load i32, ptr %37, align 8, !tbaa !79
  %39 = icmp eq i32 %38, 11
  br i1 %39, label %40, label %41

40:                                               ; preds = %35
  store i32 2, ptr %9, align 4, !tbaa !17
  br label %50

41:                                               ; preds = %35
  %42 = load ptr, ptr %5, align 8, !tbaa !62
  %43 = getelementptr inbounds nuw %struct.If_LibLut_t_, ptr %42, i32 0, i32 1
  %44 = load i32, ptr %43, align 8, !tbaa !79
  %45 = icmp eq i32 %44, 16
  br i1 %45, label %46, label %47

46:                                               ; preds = %41
  store i32 3, ptr %9, align 4, !tbaa !17
  br label %49

47:                                               ; preds = %41
  %48 = call i32 (ptr, ...) @printf(ptr noundef @.str.2)
  store i32 1, ptr %11, align 4
  br label %104

49:                                               ; preds = %46
  br label %50

50:                                               ; preds = %49, %40
  br label %53

51:                                               ; preds = %32
  %52 = call i32 (ptr, ...) @printf(ptr noundef @.str.3)
  store i32 1, ptr %11, align 4
  br label %104

53:                                               ; preds = %50
  br label %54

54:                                               ; preds = %53, %31
  %55 = load i32, ptr %6, align 4, !tbaa !17
  %56 = icmp ne i32 %55, 0
  br i1 %56, label %57, label %61

57:                                               ; preds = %54
  %58 = load i32, ptr %9, align 4, !tbaa !17
  %59 = load i32, ptr %10, align 4, !tbaa !17
  %60 = call i32 (ptr, ...) @printf(ptr noundef @.str.4, i32 noundef %58, i32 noundef %59)
  br label %61

61:                                               ; preds = %57, %54
  %62 = load ptr, ptr %4, align 8, !tbaa !3
  %63 = getelementptr inbounds nuw %struct.Gia_Man_t_, ptr %62, i32 0, i32 95
  %64 = load ptr, ptr %63, align 8, !tbaa !81
  %65 = icmp eq ptr %64, null
  br i1 %65, label %66, label %74

66:                                               ; preds = %61
  %67 = load ptr, ptr %4, align 8, !tbaa !3
  %68 = call i32 @Gia_ManCiNum(ptr noundef %67)
  %69 = load ptr, ptr %4, align 8, !tbaa !3
  %70 = call i32 @Gia_ManCoNum(ptr noundef %69)
  %71 = call ptr @Tim_ManStart(i32 noundef %68, i32 noundef %70)
  store ptr %71, ptr %8, align 8, !tbaa !63
  %72 = load ptr, ptr %4, align 8, !tbaa !3
  %73 = getelementptr inbounds nuw %struct.Gia_Man_t_, ptr %72, i32 0, i32 95
  store ptr %71, ptr %73, align 8, !tbaa !81
  br label %74

74:                                               ; preds = %66, %61
  %75 = load ptr, ptr %4, align 8, !tbaa !3
  %76 = load ptr, ptr %5, align 8, !tbaa !62
  %77 = load ptr, ptr %4, align 8, !tbaa !3
  %78 = getelementptr inbounds nuw %struct.Gia_Man_t_, ptr %77, i32 0, i32 95
  %79 = load ptr, ptr %78, align 8, !tbaa !81
  %80 = load i32, ptr %10, align 4, !tbaa !17
  %81 = load i32, ptr %9, align 4, !tbaa !17
  %82 = call ptr @Gia_ManIffPerform(ptr noundef %75, ptr noundef %76, ptr noundef %79, i32 noundef %80, i32 noundef %81)
  store ptr %82, ptr %7, align 8, !tbaa !8
  %83 = load ptr, ptr %4, align 8, !tbaa !3
  %84 = getelementptr inbounds nuw %struct.Gia_Man_t_, ptr %83, i32 0, i32 95
  %85 = load ptr, ptr %84, align 8, !tbaa !81
  %86 = load ptr, ptr %8, align 8, !tbaa !63
  %87 = icmp eq ptr %85, %86
  br i1 %87, label %88, label %91

88:                                               ; preds = %74
  %89 = load ptr, ptr %4, align 8, !tbaa !3
  %90 = getelementptr inbounds nuw %struct.Gia_Man_t_, ptr %89, i32 0, i32 95
  store ptr null, ptr %90, align 8, !tbaa !81
  br label %91

91:                                               ; preds = %88, %74
  call void @Tim_ManStopP(ptr noundef %8)
  %92 = load ptr, ptr %4, align 8, !tbaa !3
  %93 = getelementptr inbounds nuw %struct.Gia_Man_t_, ptr %92, i32 0, i32 42
  call void @Vec_IntFreeP(ptr noundef %93)
  %94 = load ptr, ptr %7, align 8, !tbaa !8
  %95 = call ptr @Gia_ManIffSelect(ptr noundef %94)
  %96 = load ptr, ptr %4, align 8, !tbaa !3
  %97 = getelementptr inbounds nuw %struct.Gia_Man_t_, ptr %96, i32 0, i32 42
  store ptr %95, ptr %97, align 8, !tbaa !82
  %98 = load ptr, ptr %7, align 8, !tbaa !8
  call void @Gia_ManIffStop(ptr noundef %98)
  %99 = load i32, ptr %6, align 4, !tbaa !17
  %100 = icmp ne i32 %99, 0
  br i1 %100, label %101, label %103

101:                                              ; preds = %91
  %102 = load ptr, ptr %4, align 8, !tbaa !3
  call void @Gia_ManPrintPackingStats(ptr noundef %102)
  br label %103

103:                                              ; preds = %101, %91
  store i32 0, ptr %11, align 4
  br label %104

104:                                              ; preds = %103, %51, %47, %28
  call void @llvm.lifetime.end.p0(i64 4, ptr %10) #9
  call void @llvm.lifetime.end.p0(i64 4, ptr %9) #9
  call void @llvm.lifetime.end.p0(i64 8, ptr %8) #9
  call void @llvm.lifetime.end.p0(i64 8, ptr %7) #9
  %105 = load i32, ptr %11, align 4
  switch i32 %105, label %107 [
    i32 0, label %106
    i32 1, label %106
  ]

106:                                              ; preds = %104, %104
  ret void

107:                                              ; preds = %104
  unreachable
}