; Function Attrs: nounwind uwtable
define void @Gia_ManIffTest(ptr noundef %0, ptr noundef %1, i32 noundef %2) local_unnamed_addr #5 {
  %4 = alloca ptr, align 8
  call void @llvm.lifetime.start.p0(i64 8, ptr nonnull %4) #15
  store ptr null, ptr %4, align 8, !tbaa !71
  %5 = tail call i32 @Gia_ManLutSizeMax(ptr noundef %0) #15
  %6 = icmp slt i32 %5, 5
  br i1 %6, label %7, label %12

7:                                                ; preds = %3
  %8 = getelementptr inbounds nuw i8, ptr %1, i64 8
  %9 = load i32, ptr %8, align 8, !tbaa !73
  switch i32 %9, label %11 [
    i32 7, label %20
    i32 10, label %10
  ]

10:                                               ; preds = %7
  br label %20

11:                                               ; preds = %7
  %puts31 = tail call i32 @puts(ptr nonnull dereferenceable(1) @str.2)
  br label %53

12:                                               ; preds = %3
  %13 = icmp samesign ult i32 %5, 7
  br i1 %13, label %14, label %19

14:                                               ; preds = %12
  %15 = getelementptr inbounds nuw i8, ptr %1, i64 8
  %16 = load i32, ptr %15, align 8, !tbaa !73
  switch i32 %16, label %18 [
    i32 11, label %20
    i32 16, label %17
  ]

17:                                               ; preds = %14
  br label %20

18:                                               ; preds = %14
  %puts30 = tail call i32 @puts(ptr nonnull dereferenceable(1) @str.1)
  br label %53

19:                                               ; preds = %12
  %puts = tail call i32 @puts(ptr nonnull dereferenceable(1) @str)
  br label %53

20:                                               ; preds = %14, %7, %17, %10
  %.026 = phi i32 [ 3, %10 ], [ 3, %17 ], [ 2, %7 ], [ 2, %14 ]
  %.0 = phi i32 [ 4, %10 ], [ 6, %17 ], [ 4, %7 ], [ 6, %14 ]
  %.not = icmp eq i32 %2, 0
  br i1 %.not, label %23, label %21

21:                                               ; preds = %20
  %22 = tail call i32 (ptr, ...) @printf(ptr noundef nonnull dereferenceable(1) @.str.4, i32 noundef %.026, i32 noundef %.0)
  br label %23

23:                                               ; preds = %21, %20
  %24 = getelementptr inbounds nuw i8, ptr %0, i64 736
  %25 = load ptr, ptr %24, align 8, !tbaa !75
  %26 = icmp eq ptr %25, null
  br i1 %26, label %27, label %33

27:                                               ; preds = %23
  %28 = getelementptr i8, ptr %0, i64 64
  %.val = load ptr, ptr %28, align 8, !tbaa !67
  %29 = getelementptr i8, ptr %.val, i64 4
  %.val.val = load i32, ptr %29, align 4, !tbaa !38
  %30 = getelementptr i8, ptr %0, i64 72
  %.val32 = load ptr, ptr %30, align 8, !tbaa !69
  %31 = getelementptr i8, ptr %.val32, i64 4
  %.val32.val = load i32, ptr %31, align 4, !tbaa !38
  %32 = tail call ptr @Tim_ManStart(i32 noundef %.val.val, i32 noundef %.val32.val) #15
  store ptr %32, ptr %4, align 8, !tbaa !71
  store ptr %32, ptr %24, align 8, !tbaa !75
  br label %33

33:                                               ; preds = %27, %23
  %34 = phi ptr [ %32, %27 ], [ null, %23 ]
  %35 = phi ptr [ %32, %27 ], [ %25, %23 ]
  %36 = tail call ptr @Gia_ManIffPerform(ptr noundef nonnull %0, ptr noundef nonnull %1, ptr noundef %35, i32 noundef %.0, i32 noundef %.026)
  %37 = load ptr, ptr %24, align 8, !tbaa !75
  %38 = icmp eq ptr %37, %34
  br i1 %38, label %39, label %40

39:                                               ; preds = %33
  store ptr null, ptr %24, align 8, !tbaa !75
  br label %40

40:                                               ; preds = %39, %33
  call void @Tim_ManStopP(ptr noundef nonnull %4) #15
  %41 = getelementptr inbounds nuw i8, ptr %0, i64 304
  %42 = load ptr, ptr %41, align 8, !tbaa !39
  %43 = icmp eq ptr %42, null
  br i1 %43, label %Vec_IntFreeP.exit, label %44

44:                                               ; preds = %40
  %45 = getelementptr inbounds nuw i8, ptr %42, i64 8
  %46 = load ptr, ptr %45, align 8, !tbaa !37
  %.not.i = icmp eq ptr %46, null
  br i1 %.not.i, label %49, label %.thread.i

.thread.i:                                        ; preds = %44
  call void @free(ptr noundef nonnull %46) #15
  %47 = load ptr, ptr %41, align 8, !tbaa !39
  %48 = getelementptr inbounds nuw i8, ptr %47, i64 8
  store ptr null, ptr %48, align 8, !tbaa !37
  br label %49

49:                                               ; preds = %.thread.i, %44
  %50 = phi ptr [ %47, %.thread.i ], [ %42, %44 ]
  call void @free(ptr noundef nonnull %50) #15
  store ptr null, ptr %41, align 8, !tbaa !39
  br label %Vec_IntFreeP.exit

Vec_IntFreeP.exit:                                ; preds = %40, %49
  %51 = call ptr @Gia_ManIffSelect(ptr noundef %36)
  store ptr %51, ptr %41, align 8, !tbaa !76
  call void @Gia_ManIffStop(ptr noundef %36)
  br i1 %.not, label %53, label %52

52:                                               ; preds = %Vec_IntFreeP.exit
  call void @Gia_ManPrintPackingStats(ptr noundef nonnull %0) #15
  br label %53

53:                                               ; preds = %Vec_IntFreeP.exit, %52, %19, %18, %11
  call void @llvm.lifetime.end.p0(i64 8, ptr nonnull %4) #15
  ret void
}